target datalayout = "e-m:e-p270:32:32-p271:32:32-p272:64:64-i64:64-i128:128-f80:128-n8:16:32:64-S128"
target triple = "x86_64-pc-linux-gnu"

%struct._GdkEventButton = type { i32, ptr, i8, i32, double, double, ptr, i32, i32, ptr, double, double }

@.str.176 = private unnamed_addr constant [205 x i8] c"$(FILE_NAME).$(FILE_EXTENSION)$(NL)<b>$(EXIF.EXPOSURE)</b> \E2\80\A2 <b>f/$(EXIF.APERTURE)</b> \E2\80\A2 <b>$(EXIF.FOCAL.LENGTH)</b>mm \E2\80\A2 ISO <b>$(EXIF.ISO)</b> $(GPS.LOCATION.ICON) $(EXIF.FLASH.ICON) $(SIDECAR_TXT)\00", align 1

; Function Attrs: nounwind uwtable
define internal i32 @reset_widget_idm1143(ptr noundef %0, ptr noundef %1, ptr noundef %2) #0 {
  %4 = alloca i32, align 4
  %5 = alloca ptr, align 8
  %6 = alloca ptr, align 8
  %7 = alloca ptr, align 8
  store ptr %0, ptr %5, align 8, !tbaa !6
  store ptr %1, ptr %6, align 8, !tbaa !64
  store ptr %2, ptr %7, align 8, !tbaa !6
  %8 = load ptr, ptr %6, align 8, !tbaa !64
  %9 = getelementptr inbounds nuw %struct._GdkEventButton, ptr %8, i32 0, i32 0
  %10 = load i32, ptr %9, align 8, !tbaa !66
  %11 = icmp eq i32 %10, 5
  br i1 %11, label %12, label %17

12:                                               ; preds = %3
  %13 = load ptr, ptr %7, align 8, !tbaa !6
  %14 = call i64 @gtk_text_view_get_type() #11
  %15 = call ptr @g_type_check_instance_cast(ptr noundef %13, i64 noundef %14)
  %16 = call ptr @gtk_text_view_get_buffer(ptr noundef %15)
  call void @gtk_text_buffer_set_text(ptr noundef %16, ptr noundef @.str.176, i32 noundef 204)
  store i32 1, ptr %4, align 4
  br label %18

17:                                               ; preds = %3
  store i32 0, ptr %4, align 4
  br label %18

18:                                               ; preds = %17, %12
  %19 = load i32, ptr %4, align 4
  ret i32 %19
}